(dp0
Vengine
p1
Vxelatex
p2
sVpackages
p3
c__builtin__
set
p4
((lp5
Vhyperref
p6
aVpolyglossia
p7
aVbooktabs
p8
aVfootnote
aVbiblatex
p10
aVgeometry
p11
aVgrffile
p12
aVcsquotes
p13
aVlongtable
p14
aVgraphicx
p15
aVparskip
p16
atp17
Rp18
sVfiles_with_guttermarks
p19
g4
((lp20
S'syllabus.tex'
p21
aV/Users/juanespejo/Documents/reveal/philandfilm/syllabus.tex
p22
atp23
Rp24
sVsynctex
p25
I01
s.